; Function Attrs: mustprogress uwtable
define noundef i32 @_Z13read_next_xtcP8t_fileioiPlPfPA3_fS4_S2_Pb(ptr noundef %0, i32 noundef %1, ptr nocapture noundef %2, ptr noundef %3, ptr noundef %4, ptr noundef %5, ptr noundef %6, ptr nocapture noundef writeonly %7) local_unnamed_addr #0 personality ptr @__gxx_personality_v0 {
  %9 = alloca %"class.std::filesystem::__cxx11::path", align 8
  %10 = alloca i32, align 4
  %11 = alloca i32, align 4
  %12 = alloca i32, align 4
  %13 = alloca %"class.std::filesystem::__cxx11::path", align 8
  store i32 %1, ptr %10, align 4
  store i8 1, ptr %7, align 1
  %14 = tail call noundef ptr @_Z14gmx_fio_getxdrP8t_fileio(ptr noundef %0)
  %15 = call fastcc noundef i32 @_ZL10xtc_headerP3XDRPiS1_PlPfbPb(ptr noundef %14, ptr noundef nonnull %11, ptr noundef nonnull %12, ptr noundef %2, ptr noundef %3, ptr noundef nonnull %7)
  %.not = icmp eq i32 %15, 0
  br i1 %.not, label %44, label %16

16:                                               ; preds = %8
  %17 = load i32, ptr %11, align 4
  call void @llvm.lifetime.start.p0(i64 40, ptr nonnull %9)
  switch i32 %17, label %18 [
    i32 2023, label %_ZL15check_xtc_magici.exit
    i32 1995, label %_ZL15check_xtc_magici.exit
  ]

18:                                               ; preds = %16
  call void @_ZNSt10filesystem7__cxx114pathC2IA122_cS1_EERKT_NS1_6formatE(ptr noundef nonnull align 8 dereferenceable(40) %9, ptr noundef nonnull align 1 dereferenceable(122) @.str.1, i8 noundef zeroext 2)
  invoke void (i32, ptr, i32, ptr, ...) @_Z9gmx_fataliRKNSt10filesystem7__cxx114pathEiPKcz(i32 noundef 0, ptr noundef nonnull align 8 dereferenceable(40) %9, i32 noundef 85, ptr noundef nonnull @.str.8, i32 noundef %17, i32 noundef 1995, i32 noundef 2023) #9
          to label %19 unwind label %20

19:                                               ; preds = %18
  unreachable

common.resume:                                    ; preds = %27, %20
  %.sink = phi ptr [ %13, %27 ], [ %9, %20 ]
  %common.resume.op = phi { ptr, i32 } [ %28, %27 ], [ %21, %20 ]
  call void @_ZNSt10filesystem7__cxx114pathD2Ev(ptr noundef nonnull align 8 dereferenceable(40) %.sink) #8
  resume { ptr, i32 } %common.resume.op

20:                                               ; preds = %18
  %21 = landingpad { ptr, i32 }
          cleanup
  br label %common.resume

_ZL15check_xtc_magici.exit:                       ; preds = %16, %16
  call void @llvm.lifetime.end.p0(i64 40, ptr nonnull %9)
  %22 = load i32, ptr %12, align 4
  %23 = icmp sgt i32 %22, %1
  br i1 %23, label %24, label %.preheader.i

24:                                               ; preds = %_ZL15check_xtc_magici.exit
  call void @_ZNSt10filesystem7__cxx114pathC2IA122_cS1_EERKT_NS1_6formatE(ptr noundef nonnull align 8 dereferenceable(40) %13, ptr noundef nonnull align 1 dereferenceable(122) @.str.1, i8 noundef zeroext 2)
  %25 = load i32, ptr %12, align 4
  invoke void (i32, ptr, i32, ptr, ...) @_Z9gmx_fataliRKNSt10filesystem7__cxx114pathEiPKcz(i32 noundef 0, ptr noundef nonnull align 8 dereferenceable(40) %13, i32 noundef 279, ptr noundef nonnull @.str.9, i32 noundef %25, i32 noundef %1) #9
          to label %26 unwind label %27

26:                                               ; preds = %24
  unreachable

27:                                               ; preds = %24
  %28 = landingpad { ptr, i32 }
          cleanup
  br label %common.resume

.preheader.i:                                     ; preds = %_ZL15check_xtc_magici.exit, %36
  %indvars.iv29.i = phi i64 [ %indvars.iv.next30.i, %36 ], [ 0, %_ZL15check_xtc_magici.exit ]
  br label %29

29:                                               ; preds = %_ZL9xtc_checkPKcbS0_i.exit.i, %.preheader.i
  %indvars.iv.i = phi i64 [ 0, %.preheader.i ], [ %indvars.iv.next.i, %_ZL9xtc_checkPKcbS0_i.exit.i ]
  %30 = getelementptr inbounds [3 x float], ptr %4, i64 %indvars.iv29.i, i64 %indvars.iv.i
  %31 = call noundef i32 @_Z9xdr_floatP3XDRPf(ptr noundef %14, ptr noundef %30)
  %.not25.i.not = icmp eq i32 %31, 0
  br i1 %.not25.i.not, label %32, label %_ZL9xtc_checkPKcbS0_i.exit.i

32:                                               ; preds = %29
  %33 = load ptr, ptr @debug, align 8
  %.not.i.i = icmp eq ptr %33, null
  br i1 %.not.i.i, label %_ZL9xtc_coordP3XDRPiPA3_fS3_Pfib.exit, label %34

34:                                               ; preds = %32
  %35 = call i32 (ptr, ptr, ...) @fprintf(ptr noundef nonnull %33, ptr noundef nonnull @.str.4, ptr noundef nonnull @.str.5, ptr noundef nonnull @.str.1, i32 noundef 150) #8
  br label %_ZL9xtc_coordP3XDRPiPA3_fS3_Pfib.exit

_ZL9xtc_checkPKcbS0_i.exit.i:                     ; preds = %29
  %indvars.iv.next.i = add nuw nsw i64 %indvars.iv.i, 1
  %exitcond.not = icmp eq i64 %indvars.iv.next.i, 3
  br i1 %exitcond.not, label %36, label %29, !llvm.loop !5

36:                                               ; preds = %_ZL9xtc_checkPKcbS0_i.exit.i
  %indvars.iv.next30.i = add nuw nsw i64 %indvars.iv29.i, 1
  %exitcond14.not = icmp eq i64 %indvars.iv.next30.i, 3
  br i1 %exitcond14.not, label %37, label %.preheader.i, !llvm.loop !7

37:                                               ; preds = %36
  %38 = call noundef i32 @_Z11xdr3dfcoordP3XDRPfPiS1_i(ptr noundef %14, ptr noundef %5, ptr noundef nonnull %10, ptr noundef %6, i32 noundef %17)
  %.not.i = icmp eq i32 %38, 0
  br i1 %.not.i, label %39, label %_ZL9xtc_coordP3XDRPiPA3_fS3_Pfib.exit

39:                                               ; preds = %37
  %40 = load ptr, ptr @debug, align 8
  %.not.i22.i = icmp eq ptr %40, null
  br i1 %.not.i22.i, label %_ZL9xtc_coordP3XDRPiPA3_fS3_Pfib.exit, label %41

41:                                               ; preds = %39
  %42 = call i32 (ptr, ptr, ...) @fprintf(ptr noundef nonnull %40, ptr noundef nonnull @.str.4, ptr noundef nonnull @.str.6, ptr noundef nonnull @.str.1, i32 noundef 189) #8
  br label %_ZL9xtc_coordP3XDRPiPA3_fS3_Pfib.exit

_ZL9xtc_coordP3XDRPiPA3_fS3_Pfib.exit:            ; preds = %32, %34, %37, %39, %41
  %.021.i = phi i32 [ 0, %41 ], [ 0, %39 ], [ 1, %37 ], [ 0, %32 ], [ 0, %34 ]
  %43 = trunc nuw nsw i32 %.021.i to i8
  store i8 %43, ptr %7, align 1
  br label %44

44:                                               ; preds = %8, %_ZL9xtc_coordP3XDRPiPA3_fS3_Pfib.exit
  %.0 = phi i32 [ %.021.i, %_ZL9xtc_coordP3XDRPiPA3_fS3_Pfib.exit ], [ 0, %8 ]
  ret i32 %.0
}